target datalayout = "e-m:e-p270:32:32-p271:32:32-p272:64:64-i64:64-i128:128-f80:128-n8:16:32:64-S128"
target triple = "x86_64-pc-linux-gnu"

%struct.SDL_AudioDriver = type { ptr, ptr, %struct.SDL_AudioDriverImpl, ptr, ptr, ptr, i32, i32, %struct.SDL_PendingAudioDeviceEvent, ptr, %struct.SDL_AtomicInt, %struct.SDL_AtomicInt, %struct.SDL_AtomicInt }
%struct.SDL_AudioDriverImpl = type { ptr, ptr, ptr, ptr, ptr, ptr, ptr, ptr, ptr, ptr, ptr, ptr, ptr, ptr, i8, i8, i8, i8 }
%struct.SDL_PendingAudioDeviceEvent = type { i32, i32, ptr }
%struct.SDL_AtomicInt = type { i32 }
%struct.SDL_AudioSpec = type { i32, i32, i32 }
%struct.SDL_AudioDevice = type { ptr, ptr, %struct.SDL_AtomicInt, ptr, ptr, ptr, ptr, ptr, ptr, ptr, i32, ptr, %struct.SDL_AudioSpec, i32, ptr, %struct.SDL_AudioSpec, i32, i32, %struct.SDL_AtomicInt, %struct.SDL_AtomicInt, i8, i8, ptr, ptr, ptr, i32, ptr, i8, ptr, ptr }
%struct.SDL_LogicalAudioDevice = type { i32, ptr, %struct.SDL_AtomicInt, float, ptr, i8, i8, ptr, ptr, ptr, ptr, ptr, ptr, ptr }

@current_audio = internal global %struct.SDL_AudioDriver zeroinitializer, align 8
@last_device_instance_id = internal global %struct.SDL_AtomicInt zeroinitializer, align 4
@.str.10 = private unnamed_addr constant [35 x i8] c"Audio subsystem is not initialized\00", align 1
@.str.15 = private unnamed_addr constant [51 x i8] c"Device was already lost and can't accept new opens\00", align 1

; Function Attrs: nounwind uwtable
define internal i32 @AssignAudioDeviceInstanceId(i1 noundef zeroext %0, i1 noundef zeroext %1) #0 {
  %3 = alloca i8, align 1
  %4 = alloca i8, align 1
  %5 = alloca i32, align 4
  %6 = alloca i32, align 4
  %7 = zext i1 %0 to i8
  store i8 %7, ptr %3, align 1
  %8 = zext i1 %1 to i8
  store i8 %8, ptr %4, align 1
  call void @llvm.lifetime.start.p0(i64 4, ptr %5) #6
  %9 = load i8, ptr %3, align 1, !range !5, !noundef !6
  %10 = trunc i8 %9 to i1
  %11 = select i1 %10, i32 0, i32 1
  %12 = load i8, ptr %4, align 1, !range !5, !noundef !6
  %13 = trunc i8 %12 to i1
  %14 = select i1 %13, i32 0, i32 2
  %15 = or i32 %11, %14
  store i32 %15, ptr %5, align 4
  call void @llvm.lifetime.start.p0(i64 4, ptr %6) #6
  %16 = call i32 @SDL_AddAtomicInt_REAL(ptr noundef @last_device_instance_id, i32 noundef 1)
  %17 = add nsw i32 %16, 1
  %18 = shl i32 %17, 2
  %19 = load i32, ptr %5, align 4
  %20 = or i32 %18, %19
  store i32 %20, ptr %6, align 4
  br label %21

21:                                               ; preds = %2
  br label %22

22:                                               ; preds = %21
  br label %23

23:                                               ; preds = %22
  %24 = load i32, ptr %6, align 4
  call void @llvm.lifetime.end.p0(i64 4, ptr %6) #6
  call void @llvm.lifetime.end.p0(i64 4, ptr %5) #6
  ret i32 %24
}

; Function Attrs: nounwind uwtable
define hidden void @RefPhysicalAudioDevice(ptr noundef %0) #0 {
  %2 = alloca ptr, align 8
  store ptr %0, ptr %2, align 8
  %3 = load ptr, ptr %2, align 8
  %4 = getelementptr inbounds nuw %struct.SDL_AudioDevice, ptr %3, i32 0, i32 2
  %5 = call i32 @SDL_AddAtomicInt_REAL(ptr noundef %4, i32 noundef 1)
  ret void
}

; Function Attrs: nounwind uwtable
define hidden ptr @SDL_GetCurrentAudioDriver_REAL() #0 {
  %1 = load ptr, ptr @current_audio, align 8
  ret ptr %1
}

; Function Attrs: nounwind uwtable
define hidden i32 @SDL_OpenAudioDevice_REAL(i32 noundef %0, ptr noundef %1) #0 {
  %3 = alloca i32, align 4
  %4 = alloca i32, align 4
  %5 = alloca ptr, align 8
  %6 = alloca i8, align 1
  %7 = alloca ptr, align 8
  %8 = alloca i8, align 1
  %9 = alloca ptr, align 8
  %10 = alloca i32, align 4
  %11 = alloca ptr, align 8
  %12 = alloca i8, align 1
  store i32 %0, ptr %4, align 4
  store ptr %1, ptr %5, align 8
  %13 = call ptr @SDL_GetCurrentAudioDriver_REAL()
  %14 = icmp ne ptr %13, null
  br i1 %14, label %17, label %15

15:                                               ; preds = %2
  %16 = call zeroext i1 (ptr, ...) @SDL_SetError_REAL(ptr noundef @.str.10)
  store i32 0, ptr %3, align 4
  br label %142

17:                                               ; preds = %2
  call void @llvm.lifetime.start.p0(i64 1, ptr %6) #6
  %18 = load i32, ptr %4, align 4
  %19 = icmp eq i32 %18, -1
  br i1 %19, label %23, label %20

20:                                               ; preds = %17
  %21 = load i32, ptr %4, align 4
  %22 = icmp eq i32 %21, -2
  br label %23

23:                                               ; preds = %20, %17
  %24 = phi i1 [ true, %17 ], [ %22, %20 ]
  %25 = zext i1 %24 to i8
  store i8 %25, ptr %6, align 1
  call void @llvm.lifetime.start.p0(i64 8, ptr %7) #6
  store ptr null, ptr %7, align 8
  call void @llvm.lifetime.start.p0(i64 1, ptr %8) #6
  %26 = load i8, ptr %6, align 1, !range !5, !noundef !6
  %27 = trunc i8 %26 to i1
  br i1 %27, label %33, label %28

28:                                               ; preds = %23
  %29 = load i32, ptr %4, align 4
  %30 = and i32 %29, 2
  %31 = icmp ne i32 %30, 0
  %32 = xor i1 %31, true
  br label %33

33:                                               ; preds = %28, %23
  %34 = phi i1 [ false, %23 ], [ %32, %28 ]
  %35 = zext i1 %34 to i8
  store i8 %35, ptr %8, align 1
  %36 = load i8, ptr %8, align 1, !range !5, !noundef !6
  %37 = trunc i8 %36 to i1
  br i1 %37, label %41, label %38

38:                                               ; preds = %33
  %39 = load i32, ptr %4, align 4
  %40 = call ptr @ObtainPhysicalAudioDeviceDefaultAllowed(i32 noundef %39)
  store ptr %40, ptr %7, align 8
  br label %53

41:                                               ; preds = %33
  call void @llvm.lifetime.start.p0(i64 8, ptr %9) #6
  %42 = load i32, ptr %4, align 4
  %43 = call ptr @ObtainLogicalAudioDevice(i32 noundef %42, ptr noundef %7)
  store ptr %43, ptr %9, align 8
  %44 = load ptr, ptr %9, align 8
  %45 = icmp ne ptr %44, null
  br i1 %45, label %46, label %52

46:                                               ; preds = %41
  %47 = load ptr, ptr %9, align 8
  %48 = getelementptr inbounds nuw %struct.SDL_LogicalAudioDevice, ptr %47, i32 0, i32 5
  %49 = load i8, ptr %48, align 8, !range !5, !noundef !6
  %50 = trunc i8 %49 to i1
  %51 = zext i1 %50 to i8
  store i8 %51, ptr %6, align 1
  br label %52

52:                                               ; preds = %46, %41
  call void @llvm.lifetime.end.p0(i64 8, ptr %9) #6
  br label %53

53:                                               ; preds = %52, %38
  call void @llvm.lifetime.start.p0(i64 4, ptr %10) #6
  store i32 0, ptr %10, align 4
  %54 = load ptr, ptr %7, align 8
  %55 = icmp ne ptr %54, null
  br i1 %55, label %56, label %140

56:                                               ; preds = %53
  call void @llvm.lifetime.start.p0(i64 8, ptr %11) #6
  store ptr null, ptr %11, align 8
  %57 = load i8, ptr %6, align 1, !range !5, !noundef !6
  %58 = trunc i8 %57 to i1
  br i1 %58, label %66, label %59

59:                                               ; preds = %56
  %60 = load ptr, ptr %7, align 8
  %61 = getelementptr inbounds nuw %struct.SDL_AudioDevice, ptr %60, i32 0, i32 19
  %62 = call i32 @SDL_GetAtomicInt_REAL(ptr noundef %61)
  %63 = icmp ne i32 %62, 0
  br i1 %63, label %64, label %66

64:                                               ; preds = %59
  %65 = call zeroext i1 (ptr, ...) @SDL_SetError_REAL(ptr noundef @.str.15)
  br label %120

66:                                               ; preds = %59, %56
  %67 = call noalias ptr @SDL_calloc_REAL(i64 noundef 1, i64 noundef 96) #7
  store ptr %67, ptr %11, align 8
  %68 = icmp eq ptr %67, null
  br i1 %68, label %69, label %70

69:                                               ; preds = %66
  br label %119

70:                                               ; preds = %66
  %71 = load ptr, ptr %7, align 8
  %72 = load ptr, ptr %5, align 8
  %73 = call zeroext i1 @OpenPhysicalAudioDevice(ptr noundef %71, ptr noundef %72)
  br i1 %73, label %76, label %74

74:                                               ; preds = %70
  %75 = load ptr, ptr %11, align 8
  call void @SDL_free_REAL(ptr noundef %75)
  br label %118

76:                                               ; preds = %70
  %77 = load ptr, ptr %7, align 8
  call void @RefPhysicalAudioDevice(ptr noundef %77)
  %78 = load ptr, ptr %11, align 8
  %79 = getelementptr inbounds nuw %struct.SDL_LogicalAudioDevice, ptr %78, i32 0, i32 2
  %80 = call i32 @SDL_SetAtomicInt_REAL(ptr noundef %79, i32 noundef 0)
  %81 = load ptr, ptr %7, align 8
  %82 = getelementptr inbounds nuw %struct.SDL_AudioDevice, ptr %81, i32 0, i32 20
  %83 = load i8, ptr %82, align 4, !range !5, !noundef !6
  %84 = trunc i8 %83 to i1
  %85 = call i32 @AssignAudioDeviceInstanceId(i1 noundef zeroext %84, i1 noundef zeroext true)
  %86 = load ptr, ptr %11, align 8
  %87 = getelementptr inbounds nuw %struct.SDL_LogicalAudioDevice, ptr %86, i32 0, i32 0
  store i32 %85, ptr %87, align 8
  store i32 %85, ptr %10, align 4
  %88 = load ptr, ptr %7, align 8
  %89 = load ptr, ptr %11, align 8
  %90 = getelementptr inbounds nuw %struct.SDL_LogicalAudioDevice, ptr %89, i32 0, i32 1
  store ptr %88, ptr %90, align 8
  %91 = load ptr, ptr %11, align 8
  %92 = getelementptr inbounds nuw %struct.SDL_LogicalAudioDevice, ptr %91, i32 0, i32 3
  store float 1.000000e+00, ptr %92, align 4
  %93 = load i8, ptr %6, align 1, !range !5, !noundef !6
  %94 = trunc i8 %93 to i1
  %95 = load ptr, ptr %11, align 8
  %96 = getelementptr inbounds nuw %struct.SDL_LogicalAudioDevice, ptr %95, i32 0, i32 5
  %97 = zext i1 %94 to i8
  store i8 %97, ptr %96, align 8
  %98 = load ptr, ptr %7, align 8
  %99 = getelementptr inbounds nuw %struct.SDL_AudioDevice, ptr %98, i32 0, i32 29
  %100 = load ptr, ptr %99, align 8
  %101 = load ptr, ptr %11, align 8
  %102 = getelementptr inbounds nuw %struct.SDL_LogicalAudioDevice, ptr %101, i32 0, i32 12
  store ptr %100, ptr %102, align 8
  %103 = load ptr, ptr %7, align 8
  %104 = getelementptr inbounds nuw %struct.SDL_AudioDevice, ptr %103, i32 0, i32 29
  %105 = load ptr, ptr %104, align 8
  %106 = icmp ne ptr %105, null
  br i1 %106, label %107, label %113

107:                                              ; preds = %76
  %108 = load ptr, ptr %11, align 8
  %109 = load ptr, ptr %7, align 8
  %110 = getelementptr inbounds nuw %struct.SDL_AudioDevice, ptr %109, i32 0, i32 29
  %111 = load ptr, ptr %110, align 8
  %112 = getelementptr inbounds nuw %struct.SDL_LogicalAudioDevice, ptr %111, i32 0, i32 13
  store ptr %108, ptr %112, align 8
  br label %113

113:                                              ; preds = %107, %76
  %114 = load ptr, ptr %11, align 8
  %115 = load ptr, ptr %7, align 8
  %116 = getelementptr inbounds nuw %struct.SDL_AudioDevice, ptr %115, i32 0, i32 29
  store ptr %114, ptr %116, align 8
  %117 = load ptr, ptr %7, align 8
  call void @UpdateAudioStreamFormatsPhysical(ptr noundef %117)
  br label %118

118:                                              ; preds = %113, %74
  br label %119

119:                                              ; preds = %118, %69
  br label %120

120:                                              ; preds = %119, %64
  %121 = load ptr, ptr %7, align 8
  call void @ReleaseAudioDevice(ptr noundef %121)
  %122 = load i32, ptr %10, align 4
  %123 = icmp ne i32 %122, 0
  br i1 %123, label %124, label %139

124:                                              ; preds = %120
  %125 = load ptr, ptr getelementptr inbounds nuw (%struct.SDL_AudioDriver, ptr @current_audio, i32 0, i32 3), align 8
  call void @SDL_LockRWLockForWriting_REAL(ptr noundef %125)
  call void @llvm.lifetime.start.p0(i64 1, ptr %12) #6
  %126 = load ptr, ptr getelementptr inbounds nuw (%struct.SDL_AudioDriver, ptr @current_audio, i32 0, i32 4), align 8
  %127 = load i32, ptr %10, align 4
  %128 = zext i32 %127 to i64
  %129 = inttoptr i64 %128 to ptr
  %130 = load ptr, ptr %11, align 8
  %131 = call zeroext i1 @SDL_InsertIntoHashTable(ptr noundef %126, ptr noundef %129, ptr noundef %130, i1 noundef zeroext false)
  %132 = zext i1 %131 to i8
  store i8 %132, ptr %12, align 1
  %133 = load ptr, ptr getelementptr inbounds nuw (%struct.SDL_AudioDriver, ptr @current_audio, i32 0, i32 3), align 8
  call void @SDL_UnlockRWLock_REAL(ptr noundef %133)
  %134 = load i8, ptr %12, align 1, !range !5, !noundef !6
  %135 = trunc i8 %134 to i1
  br i1 %135, label %138, label %136

136:                                              ; preds = %124
  %137 = load i32, ptr %10, align 4
  call void @SDL_CloseAudioDevice_REAL(i32 noundef %137)
  store i32 0, ptr %10, align 4
  br label %138

138:                                              ; preds = %136, %124
  call void @llvm.lifetime.end.p0(i64 1, ptr %12) #6
  br label %139

139:                                              ; preds = %138, %120
  call void @llvm.lifetime.end.p0(i64 8, ptr %11) #6
  br label %140

140:                                              ; preds = %139, %53
  %141 = load i32, ptr %10, align 4
  store i32 %141, ptr %3, align 4
  call void @llvm.lifetime.end.p0(i64 4, ptr %10) #6
  call void @llvm.lifetime.end.p0(i64 1, ptr %8) #6
  call void @llvm.lifetime.end.p0(i64 8, ptr %7) #6
  call void @llvm.lifetime.end.p0(i64 1, ptr %6) #6
  br label %142

142:                                              ; preds = %140, %15
  %143 = load i32, ptr %3, align 4
  ret i32 %143
}