; Function Attrs: nounwind uwtable
define hidden i32 @SDL_OpenAudioDevice_REAL(i32 noundef %0, ptr noundef readonly captures(address_is_null) %1) local_unnamed_addr #0 {
  %3 = alloca ptr, align 8
  %4 = load ptr, ptr @current_audio, align 8
  %.not = icmp eq ptr %4, null
  br i1 %.not, label %5, label %7

5:                                                ; preds = %2
  %6 = tail call zeroext i1 (ptr, ...) @SDL_SetError_REAL(ptr noundef nonnull @.str.10) #14
  br label %63

7:                                                ; preds = %2
  %8 = icmp ugt i32 %0, -3
  call void @llvm.lifetime.start.p0(i64 8, ptr nonnull %3) #14
  store ptr null, ptr %3, align 8
  %9 = and i32 %0, 2
  %.not36.not = icmp eq i32 %9, 0
  br i1 %.not36.not, label %12, label %10

10:                                               ; preds = %7
  %11 = tail call fastcc ptr @ObtainPhysicalAudioDeviceDefaultAllowed(i32 noundef %0)
  br label %18

12:                                               ; preds = %7
  %13 = call fastcc ptr @ObtainLogicalAudioDevice(i32 noundef %0, ptr noundef %3)
  %.not38 = icmp eq ptr %13, null
  br i1 %.not38, label %thread-pre-split, label %14

14:                                               ; preds = %12
  %15 = getelementptr inbounds nuw i8, ptr %13, i64 32
  %16 = load i8, ptr %15, align 8, !range !6, !noundef !7
  %17 = trunc nuw i8 %16 to i1
  br label %thread-pre-split

thread-pre-split:                                 ; preds = %14, %12
  %.029.ph = phi i1 [ %8, %12 ], [ %17, %14 ]
  %.pr = load ptr, ptr %3, align 8
  br label %18

18:                                               ; preds = %thread-pre-split, %10
  %19 = phi ptr [ %.pr, %thread-pre-split ], [ %11, %10 ]
  %.029 = phi i1 [ %.029.ph, %thread-pre-split ], [ %8, %10 ]
  %.not39 = icmp eq ptr %19, null
  br i1 %.not39, label %62, label %20

20:                                               ; preds = %18
  br i1 %.029, label %26, label %21

21:                                               ; preds = %20
  %22 = getelementptr inbounds nuw i8, ptr %19, i64 144
  %23 = tail call i32 @SDL_GetAtomicInt_REAL(ptr noundef nonnull %22) #14
  %.not40 = icmp eq i32 %23, 0
  br i1 %.not40, label %26, label %24

24:                                               ; preds = %21
  %25 = tail call zeroext i1 (ptr, ...) @SDL_SetError_REAL(ptr noundef nonnull @.str.15) #14
  br label %.thread

26:                                               ; preds = %21, %20
  %27 = tail call noalias dereferenceable_or_null(96) ptr @SDL_calloc_REAL(i64 noundef 1, i64 noundef 96) #15
  %28 = icmp eq ptr %27, null
  br i1 %28, label %.thread, label %29

29:                                               ; preds = %26
  %30 = tail call fastcc zeroext i1 @OpenPhysicalAudioDevice(ptr noundef nonnull %19, ptr noundef %1)
  br i1 %30, label %32, label %31

31:                                               ; preds = %29
  tail call void @SDL_free_REAL(ptr noundef nonnull %27) #14
  br label %.thread

32:                                               ; preds = %29
  %33 = getelementptr inbounds nuw i8, ptr %19, i64 16
  %34 = tail call i32 @SDL_AddAtomicInt_REAL(ptr noundef nonnull %33, i32 noundef 1) #14
  %35 = getelementptr inbounds nuw i8, ptr %27, i64 16
  %36 = tail call i32 @SDL_SetAtomicInt_REAL(ptr noundef nonnull %35, i32 noundef 0) #14
  %37 = getelementptr inbounds nuw i8, ptr %19, i64 148
  %38 = load i8, ptr %37, align 4, !range !6, !noundef !7
  %39 = xor i8 %38, 1
  %not..i = zext nneg i8 %39 to i32
  %40 = tail call i32 @SDL_AddAtomicInt_REAL(ptr noundef nonnull @last_device_instance_id, i32 noundef 1) #14
  %41 = shl i32 %40, 2
  %42 = add i32 %41, 4
  %43 = or disjoint i32 %42, %not..i
  store i32 %43, ptr %27, align 8
  %44 = getelementptr inbounds nuw i8, ptr %27, i64 8
  store ptr %19, ptr %44, align 8
  %45 = getelementptr inbounds nuw i8, ptr %27, i64 20
  store float 1.000000e+00, ptr %45, align 4
  %46 = getelementptr inbounds nuw i8, ptr %27, i64 32
  %47 = zext i1 %.029 to i8
  store i8 %47, ptr %46, align 8
  %48 = getelementptr inbounds nuw i8, ptr %19, i64 208
  %49 = load ptr, ptr %48, align 8
  %50 = getelementptr inbounds nuw i8, ptr %27, i64 80
  store ptr %49, ptr %50, align 8
  %.not41 = icmp eq ptr %49, null
  br i1 %.not41, label %53, label %51

51:                                               ; preds = %32
  %52 = getelementptr inbounds nuw i8, ptr %49, i64 88
  store ptr %27, ptr %52, align 8
  br label %53

.thread:                                          ; preds = %26, %31, %24
  tail call fastcc void @ReleaseAudioDevice(ptr noundef nonnull %19)
  br label %62

53:                                               ; preds = %32, %51
  store ptr %27, ptr %48, align 8
  tail call fastcc void @UpdateAudioStreamFormatsPhysical(ptr noundef nonnull %19)
  tail call fastcc void @ReleaseAudioDevice(ptr noundef nonnull %19)
  %.not42 = icmp eq i32 %43, 0
  br i1 %.not42, label %62, label %54

54:                                               ; preds = %53
  %55 = load ptr, ptr getelementptr inbounds nuw (i8, ptr @current_audio, i64 136), align 8
  tail call void @SDL_LockRWLockForWriting_REAL(ptr noundef %55) #14
  %56 = load ptr, ptr getelementptr inbounds nuw (i8, ptr @current_audio, i64 144), align 8
  %57 = zext i32 %43 to i64
  %58 = inttoptr i64 %57 to ptr
  %59 = tail call zeroext i1 @SDL_InsertIntoHashTable(ptr noundef %56, ptr noundef nonnull %58, ptr noundef nonnull %27, i1 noundef zeroext false) #14
  %60 = load ptr, ptr getelementptr inbounds nuw (i8, ptr @current_audio, i64 136), align 8
  tail call void @SDL_UnlockRWLock_REAL(ptr noundef %60) #14
  br i1 %59, label %62, label %61

61:                                               ; preds = %54
  tail call void @SDL_CloseAudioDevice_REAL(i32 noundef %43)
  br label %62

62:                                               ; preds = %.thread, %53, %61, %54, %18
  %.028 = phi i32 [ 0, %18 ], [ 0, %53 ], [ %43, %54 ], [ 0, %61 ], [ 0, %.thread ]
  call void @llvm.lifetime.end.p0(i64 8, ptr nonnull %3) #14
  br label %63

63:                                               ; preds = %62, %5
  %.0 = phi i32 [ %.028, %62 ], [ 0, %5 ]
  ret i32 %.0
}